; Function Attrs: mustprogress nofree norecurse nosync nounwind willreturn memory(readwrite, argmem: read, inaccessiblemem: none) uwtable
define hidden void @_ZN9XStatHeap17set_at_mark_startERK19XPageAllocatorStats(ptr nocapture noundef nonnull readonly align 8 dereferenceable(72) %0) local_unnamed_addr #14 align 2 {
  %2 = getelementptr inbounds i8, ptr %0, i64 16
  %3 = load i64, ptr %2, align 8
  store i64 %3, ptr @_ZN9XStatHeap14_at_mark_startE, align 8
  %4 = getelementptr inbounds i8, ptr %0, i64 32
  %5 = load i64, ptr %4, align 8
  store i64 %5, ptr getelementptr inbounds (i8, ptr @_ZN9XStatHeap14_at_mark_startE, i64 8), align 8
  %6 = getelementptr inbounds i8, ptr %0, i64 40
  %7 = load i64, ptr %6, align 8
  %8 = load i64, ptr getelementptr inbounds (i8, ptr @_ZN9XStatHeap14_at_initializeE, i64 8), align 8
  %9 = sub i64 %8, %7
  store i64 %9, ptr getelementptr inbounds (i8, ptr @_ZN9XStatHeap14_at_mark_startE, i64 16), align 8
  store i64 %7, ptr getelementptr inbounds (i8, ptr @_ZN9XStatHeap14_at_mark_startE, i64 24), align 8
  ret void
}